target datalayout = "e-m:e-p270:32:32-p271:32:32-p272:64:64-i64:64-i128:128-f80:128-n8:16:32:64-S128"
target triple = "x86_64-pc-linux-gnu"

%"class.net::Cubic" = type { ptr, i32, %"class.net::QuicTime", %"class.net::QuicTime", %"class.net::QuicTime", i64, i64, i64, i64, i64, i32, i64 }
%"class.net::QuicTime" = type { i64 }

; Function Attrs: mustprogress nounwind uwtable
define noundef float @_ZNK3net5Cubic4BetaEv(ptr noundef nonnull align 8 dereferenceable(96) %0) #2 align 2 {
  %2 = alloca ptr, align 8
  store ptr %0, ptr %2, align 8, !tbaa !3
  %3 = load ptr, ptr %2, align 8
  %4 = getelementptr inbounds nuw %"class.net::Cubic", ptr %3, i32 0, i32 1
  %5 = load i32, ptr %4, align 8, !tbaa !15
  %6 = sub nsw i32 %5, 1
  %7 = sitofp i32 %6 to float
  %8 = fadd float %7, 0x3FE6666660000000
  %9 = getelementptr inbounds nuw %"class.net::Cubic", ptr %3, i32 0, i32 1
  %10 = load i32, ptr %9, align 8, !tbaa !15
  %11 = sitofp i32 %10 to float
  %12 = fdiv float %8, %11
  ret float %12
}