; Function Attrs: mustprogress nofree norecurse nosync nounwind willreturn memory(argmem: read) uwtable
define noundef float @_ZNK3net5Cubic4BetaEv(ptr noundef nonnull readonly align 8 captures(none) dereferenceable(96) %0) local_unnamed_addr #1 align 2 {
  %2 = getelementptr inbounds nuw i8, ptr %0, i64 8
  %3 = load i32, ptr %2, align 8, !tbaa !12
  %4 = add nsw i32 %3, -1
  %5 = sitofp i32 %4 to float
  %6 = fadd float %5, 0x3FE6666660000000
  %7 = sitofp i32 %3 to float
  %8 = fdiv float %6, %7
  ret float %8
}